target datalayout = "e-m:e-p270:32:32-p271:32:32-p272:64:64-i64:64-i128:128-f80:128-n8:16:32:64-S128"
target triple = "x86_64-unknown-linux-gnu"

%struct.default_t2uint = type { i8 }
%"class.euf::solve_context_eqs" = type { ptr, ptr, ptr, %class.obj_mark, %class.obj_mark, %class.obj_mark, %class.obj_mark, %class.obj_mark, %class.ptr_vector }
%class.obj_mark = type { %struct.default_t2uint, %class.bit_vector }
%class.bit_vector = type { i32, i32, ptr }
%class.ptr_vector = type { %class.vector }
%class.vector = type { ptr }
%class.app = type { %class.expr, ptr, i32, [0 x ptr] }
%class.expr = type { %class.ast }
%class.ast = type { i32, i24, i32, i32 }
%class.symbol = type { ptr }
%class.decl = type { %class.ast, %class.symbol, ptr }
%class.decl_info = type <{ i32, i32, %class.vector.61, i8, [7 x i8] }>
%class.vector.61 = type { ptr }

; Function Attrs: mustprogress nounwind uwtable
define linkonce_odr hidden noundef zeroext i1 @_ZNK9decl_info10is_decl_ofEii(ptr noundef nonnull align 8 dereferenceable(17) %this, i32 noundef %fid, i32 noundef %k) #5 comdat align 2 {
entry:
  %this.addr = alloca ptr, align 8
  %fid.addr = alloca i32, align 4
  %k.addr = alloca i32, align 4
  store ptr %this, ptr %this.addr, align 8
  store i32 %fid, ptr %fid.addr, align 4
  store i32 %k, ptr %k.addr, align 4
  %this1 = load ptr, ptr %this.addr, align 8
  %m_family_id = getelementptr inbounds %class.decl_info, ptr %this1, i32 0, i32 0
  %0 = load i32, ptr %m_family_id, align 8
  %1 = load i32, ptr %fid.addr, align 4
  %cmp = icmp eq i32 %0, %1
  br i1 %cmp, label %land.rhs, label %land.end

land.rhs:                                         ; preds = %entry
  %2 = load i32, ptr %k.addr, align 4
  %m_kind = getelementptr inbounds %class.decl_info, ptr %this1, i32 0, i32 1
  %3 = load i32, ptr %m_kind, align 4
  %cmp2 = icmp eq i32 %2, %3
  br label %land.end

land.end:                                         ; preds = %land.rhs, %entry
  %4 = phi i1 [ false, %entry ], [ %cmp2, %land.rhs ]
  ret i1 %4
}

; Function Attrs: mustprogress uwtable
define linkonce_odr hidden noundef zeroext i1 @_ZNK4decl10is_decl_ofEii(ptr noundef nonnull align 8 dereferenceable(32) %this, i32 noundef %fid, i32 noundef %k) #4 comdat align 2 {
entry:
  %this.addr = alloca ptr, align 8
  %fid.addr = alloca i32, align 4
  %k.addr = alloca i32, align 4
  store ptr %this, ptr %this.addr, align 8
  store i32 %fid, ptr %fid.addr, align 4
  store i32 %k, ptr %k.addr, align 4
  %this1 = load ptr, ptr %this.addr, align 8
  %m_info = getelementptr inbounds %class.decl, ptr %this1, i32 0, i32 2
  %0 = load ptr, ptr %m_info, align 8
  %tobool = icmp ne ptr %0, null
  br i1 %tobool, label %land.rhs, label %land.end

land.rhs:                                         ; preds = %entry
  %m_info2 = getelementptr inbounds %class.decl, ptr %this1, i32 0, i32 2
  %1 = load ptr, ptr %m_info2, align 8
  %2 = load i32, ptr %fid.addr, align 4
  %3 = load i32, ptr %k.addr, align 4
  %call = call noundef zeroext i1 @_ZNK9decl_info10is_decl_ofEii(ptr noundef nonnull align 8 dereferenceable(17) %1, i32 noundef %2, i32 noundef %3)
  br label %land.end

land.end:                                         ; preds = %land.rhs, %entry
  %4 = phi i1 [ false, %entry ], [ %call, %land.rhs ]
  ret i1 %4
}

; Function Attrs: mustprogress uwtable
define linkonce_odr hidden noundef zeroext i1 @_ZNK3app9is_app_ofEii(ptr noundef nonnull align 8 dereferenceable(32) %this, i32 noundef %fid, i32 noundef %k) #4 comdat align 2 {
entry:
  %this.addr = alloca ptr, align 8
  %fid.addr = alloca i32, align 4
  %k.addr = alloca i32, align 4
  store ptr %this, ptr %this.addr, align 8
  store i32 %fid, ptr %fid.addr, align 4
  store i32 %k, ptr %k.addr, align 4
  %this1 = load ptr, ptr %this.addr, align 8
  %m_decl = getelementptr inbounds %class.app, ptr %this1, i32 0, i32 1
  %0 = load ptr, ptr %m_decl, align 8
  %1 = load i32, ptr %fid.addr, align 4
  %2 = load i32, ptr %k.addr, align 4
  %call = call noundef zeroext i1 @_ZNK4decl10is_decl_ofEii(ptr noundef nonnull align 8 dereferenceable(32) %0, i32 noundef %1, i32 noundef %2)
  ret i1 %call
}

; Function Attrs: mustprogress nounwind uwtable
define linkonce_odr hidden noundef ptr @_Z6to_appPK3ast(ptr noundef %n) #5 comdat {
entry:
  %n.addr = alloca ptr, align 8
  store ptr %n, ptr %n.addr, align 8
  %0 = load ptr, ptr %n.addr, align 8
  ret ptr %0
}

; Function Attrs: mustprogress nounwind uwtable
define linkonce_odr hidden noundef i32 @_ZNK3ast8get_kindEv(ptr noundef nonnull align 4 dereferenceable(16) %this) #5 comdat align 2 {
entry:
  %this.addr = alloca ptr, align 8
  store ptr %this, ptr %this.addr, align 8
  %this1 = load ptr, ptr %this.addr, align 8
  %m_kind = getelementptr inbounds %class.ast, ptr %this1, i32 0, i32 1
  %bf.load = load i32, ptr %m_kind, align 4
  %bf.clear = and i32 %bf.load, 65535
  ret i32 %bf.clear
}

; Function Attrs: mustprogress uwtable
define linkonce_odr hidden noundef zeroext i1 @_Z9is_app_ofPK4exprii(ptr noundef %n, i32 noundef %fid, i32 noundef %k) #4 comdat {
entry:
  %n.addr = alloca ptr, align 8
  %fid.addr = alloca i32, align 4
  %k.addr = alloca i32, align 4
  store ptr %n, ptr %n.addr, align 8
  store i32 %fid, ptr %fid.addr, align 4
  store i32 %k, ptr %k.addr, align 4
  %0 = load ptr, ptr %n.addr, align 8
  %call = call noundef i32 @_ZNK3ast8get_kindEv(ptr noundef nonnull align 4 dereferenceable(16) %0)
  %cmp = icmp eq i32 %call, 0
  br i1 %cmp, label %land.rhs, label %land.end

land.rhs:                                         ; preds = %entry
  %1 = load ptr, ptr %n.addr, align 8
  %call1 = call noundef ptr @_Z6to_appPK3ast(ptr noundef %1)
  %2 = load i32, ptr %fid.addr, align 4
  %3 = load i32, ptr %k.addr, align 4
  %call2 = call noundef zeroext i1 @_ZNK3app9is_app_ofEii(ptr noundef nonnull align 8 dereferenceable(32) %call1, i32 noundef %2, i32 noundef %3)
  br label %land.end

land.end:                                         ; preds = %land.rhs, %entry
  %4 = phi i1 [ false, %entry ], [ %call2, %land.rhs ]
  ret i1 %4
}

; Function Attrs: mustprogress uwtable
define linkonce_odr hidden noundef zeroext i1 @_ZNK11ast_manager5is_orEPK4expr(ptr noundef nonnull align 8 dereferenceable(976) %this, ptr noundef %n) #4 comdat align 2 {
entry:
  %this.addr = alloca ptr, align 8
  %n.addr = alloca ptr, align 8
  store ptr %this, ptr %this.addr, align 8
  store ptr %n, ptr %n.addr, align 8
  %0 = load ptr, ptr %n.addr, align 8
  %call = call noundef zeroext i1 @_Z9is_app_ofPK4exprii(ptr noundef %0, i32 noundef 0, i32 noundef 6)
  ret i1 %call
}

; Function Attrs: mustprogress uwtable
define linkonce_odr hidden noundef zeroext i1 @_ZNK11ast_manager6is_andEPK4expr(ptr noundef nonnull align 8 dereferenceable(976) %this, ptr noundef %n) #4 comdat align 2 {
entry:
  %this.addr = alloca ptr, align 8
  %n.addr = alloca ptr, align 8
  store ptr %this, ptr %this.addr, align 8
  store ptr %n, ptr %n.addr, align 8
  %0 = load ptr, ptr %n.addr, align 8
  %call = call noundef zeroext i1 @_Z9is_app_ofPK4exprii(ptr noundef %0, i32 noundef 0, i32 noundef 5)
  ret i1 %call
}

; Function Attrs: mustprogress uwtable
define hidden noundef zeroext i1 @_ZNK3euf17solve_context_eqs14is_conjunctionEbP4expr(ptr noundef nonnull align 8 dereferenceable(152) %this, i1 noundef zeroext %sign, ptr noundef %f) #4 align 2 {
entry:
  %retval = alloca i1, align 1
  %this.addr = alloca ptr, align 8
  %sign.addr = alloca i8, align 1
  %f.addr = alloca ptr, align 8
  store ptr %this, ptr %this.addr, align 8
  %frombool = zext i1 %sign to i8
  store i8 %frombool, ptr %sign.addr, align 1
  store ptr %f, ptr %f.addr, align 8
  %this1 = load ptr, ptr %this.addr, align 8
  %0 = load i8, ptr %sign.addr, align 1
  %tobool = trunc i8 %0 to i1
  br i1 %tobool, label %if.end, label %land.lhs.true

land.lhs.true:                                    ; preds = %entry
  %m = getelementptr inbounds %"class.euf::solve_context_eqs", ptr %this1, i32 0, i32 0
  %1 = load ptr, ptr %m, align 8
  %2 = load ptr, ptr %f.addr, align 8
  %call = call noundef zeroext i1 @_ZNK11ast_manager6is_andEPK4expr(ptr noundef nonnull align 8 dereferenceable(976) %1, ptr noundef %2)
  br i1 %call, label %if.then, label %if.end

if.then:                                          ; preds = %land.lhs.true
  store i1 true, ptr %retval, align 1
  br label %return

if.end:                                           ; preds = %land.lhs.true, %entry
  %3 = load i8, ptr %sign.addr, align 1
  %tobool2 = trunc i8 %3 to i1
  br i1 %tobool2, label %land.lhs.true3, label %if.end7

land.lhs.true3:                                   ; preds = %if.end
  %m4 = getelementptr inbounds %"class.euf::solve_context_eqs", ptr %this1, i32 0, i32 0
  %4 = load ptr, ptr %m4, align 8
  %5 = load ptr, ptr %f.addr, align 8
  %call5 = call noundef zeroext i1 @_ZNK11ast_manager5is_orEPK4expr(ptr noundef nonnull align 8 dereferenceable(976) %4, ptr noundef %5)
  br i1 %call5, label %if.then6, label %if.end7

if.then6:                                         ; preds = %land.lhs.true3
  store i1 true, ptr %retval, align 1
  br label %return

if.end7:                                          ; preds = %land.lhs.true3, %if.end
  store i1 false, ptr %retval, align 1
  br label %return

return:                                           ; preds = %if.end7, %if.then6, %if.then
  %6 = load i1, ptr %retval, align 1
  ret i1 %6
}