; Function Attrs: mustprogress nofree norecurse nosync nounwind willreturn memory(read, inaccessiblemem: none) uwtable
define hidden noundef zeroext i1 @_ZNK3euf17solve_context_eqs14is_conjunctionEbP4expr(ptr nocapture noundef nonnull readonly align 8 dereferenceable(152) %this, i1 noundef zeroext %sign, ptr nocapture noundef readonly %f) local_unnamed_addr #7 align 2 {
entry:
  %m_kind.i.i.i3 = getelementptr inbounds i8, ptr %f, i64 4
  %bf.load.i.i.i4 = load i32, ptr %m_kind.i.i.i3, align 4
  %bf.clear.i.i.i5 = and i32 %bf.load.i.i.i4, 65535
  %cmp.i.i6 = icmp eq i32 %bf.clear.i.i.i5, 0
  br i1 %sign, label %land.lhs.true3, label %land.lhs.true

land.lhs.true:                                    ; preds = %entry
  br i1 %cmp.i.i6, label %land.rhs.i.i, label %if.end7

land.rhs.i.i:                                     ; preds = %land.lhs.true
  %m_decl.i.i.i = getelementptr inbounds i8, ptr %f, i64 16
  %0 = load ptr, ptr %m_decl.i.i.i, align 8
  %m_info.i.i.i.i = getelementptr inbounds i8, ptr %0, i64 24
  %1 = load ptr, ptr %m_info.i.i.i.i, align 8
  %tobool.not.i.i.i.i = icmp eq ptr %1, null
  br i1 %tobool.not.i.i.i.i, label %if.end7, label %_ZNK11ast_manager6is_andEPK4expr.exit

_ZNK11ast_manager6is_andEPK4expr.exit:            ; preds = %land.rhs.i.i
  %2 = load i32, ptr %1, align 8
  %cmp.i.i.i.i.i = icmp eq i32 %2, 0
  %m_kind.i.i.i.i.i = getelementptr inbounds i8, ptr %1, i64 4
  %3 = load i32, ptr %m_kind.i.i.i.i.i, align 4
  %cmp2.i.i.i.i.i = icmp eq i32 %3, 5
  %4 = select i1 %cmp.i.i.i.i.i, i1 %cmp2.i.i.i.i.i, i1 false
  br i1 %4, label %return, label %if.end7

land.lhs.true3:                                   ; preds = %entry
  br i1 %cmp.i.i6, label %land.rhs.i.i7, label %if.end7

land.rhs.i.i7:                                    ; preds = %land.lhs.true3
  %m_decl.i.i.i8 = getelementptr inbounds i8, ptr %f, i64 16
  %5 = load ptr, ptr %m_decl.i.i.i8, align 8
  %m_info.i.i.i.i9 = getelementptr inbounds i8, ptr %5, i64 24
  %6 = load ptr, ptr %m_info.i.i.i.i9, align 8
  %tobool.not.i.i.i.i10 = icmp eq ptr %6, null
  br i1 %tobool.not.i.i.i.i10, label %if.end7, label %_ZNK11ast_manager5is_orEPK4expr.exit

_ZNK11ast_manager5is_orEPK4expr.exit:             ; preds = %land.rhs.i.i7
  %7 = load i32, ptr %6, align 8
  %cmp.i.i.i.i.i12 = icmp eq i32 %7, 0
  %m_kind.i.i.i.i.i13 = getelementptr inbounds i8, ptr %6, i64 4
  %8 = load i32, ptr %m_kind.i.i.i.i.i13, align 4
  %cmp2.i.i.i.i.i14 = icmp eq i32 %8, 6
  %9 = select i1 %cmp.i.i.i.i.i12, i1 %cmp2.i.i.i.i.i14, i1 false
  br i1 %9, label %return, label %if.end7

if.end7:                                          ; preds = %land.rhs.i.i7, %land.lhs.true3, %land.rhs.i.i, %land.lhs.true, %_ZNK11ast_manager6is_andEPK4expr.exit, %_ZNK11ast_manager5is_orEPK4expr.exit
  br label %return

return:                                           ; preds = %_ZNK11ast_manager5is_orEPK4expr.exit, %_ZNK11ast_manager6is_andEPK4expr.exit, %if.end7
  %retval.0 = phi i1 [ false, %if.end7 ], [ true, %_ZNK11ast_manager6is_andEPK4expr.exit ], [ true, %_ZNK11ast_manager5is_orEPK4expr.exit ]
  ret i1 %retval.0
}